
nrf24l01_example_non_ACK.elf:     file format elf32-avr

Sections:
Idx Name          Size      VMA       LMA       File off  Algn
  0 .data         0000002e  00800100  00000302  00000396  2**0
                  CONTENTS, ALLOC, LOAD, DATA
  1 .text         00000302  00000000  00000000  00000094  2**1
                  CONTENTS, ALLOC, LOAD, READONLY, CODE
  2 .bss          00000002  0080012e  0080012e  000003c4  2**0
                  ALLOC
  3 .comment      00000030  00000000  00000000  000003c4  2**0
                  CONTENTS, READONLY
  4 .note.gnu.avr.deviceinfo 0000003c  00000000  00000000  000003f4  2**2
                  CONTENTS, READONLY
  5 .debug_info   00000780  00000000  00000000  00000430  2**0
                  CONTENTS, READONLY, DEBUGGING
  6 .debug_abbrev 00000718  00000000  00000000  00000bb0  2**0
                  CONTENTS, READONLY, DEBUGGING
  7 .debug_line   0000001a  00000000  00000000  000012c8  2**0
                  CONTENTS, READONLY, DEBUGGING
  8 .debug_str    0000027d  00000000  00000000  000012e2  2**0
                  CONTENTS, READONLY, DEBUGGING

Disassembly of section .text:

00000000 <__vectors>:
   0:	0c 94 46 00 	jmp	0x8c	; 0x8c <__ctors_end>
   4:	0c 94 65 00 	jmp	0xca	; 0xca <__bad_interrupt>
   8:	0c 94 65 00 	jmp	0xca	; 0xca <__bad_interrupt>
   c:	0c 94 65 00 	jmp	0xca	; 0xca <__bad_interrupt>
  10:	0c 94 65 00 	jmp	0xca	; 0xca <__bad_interrupt>
  14:	0c 94 65 00 	jmp	0xca	; 0xca <__bad_interrupt>
  18:	0c 94 65 00 	jmp	0xca	; 0xca <__bad_interrupt>
  1c:	0c 94 65 00 	jmp	0xca	; 0xca <__bad_interrupt>
  20:	0c 94 65 00 	jmp	0xca	; 0xca <__bad_interrupt>
  24:	0c 94 65 00 	jmp	0xca	; 0xca <__bad_interrupt>
  28:	0c 94 65 00 	jmp	0xca	; 0xca <__bad_interrupt>
  2c:	0c 94 65 00 	jmp	0xca	; 0xca <__bad_interrupt>
  30:	0c 94 65 00 	jmp	0xca	; 0xca <__bad_interrupt>
  34:	0c 94 65 00 	jmp	0xca	; 0xca <__bad_interrupt>
  38:	0c 94 65 00 	jmp	0xca	; 0xca <__bad_interrupt>
  3c:	0c 94 65 00 	jmp	0xca	; 0xca <__bad_interrupt>
  40:	0c 94 65 00 	jmp	0xca	; 0xca <__bad_interrupt>
  44:	0c 94 65 00 	jmp	0xca	; 0xca <__bad_interrupt>
  48:	0c 94 65 00 	jmp	0xca	; 0xca <__bad_interrupt>
  4c:	0c 94 65 00 	jmp	0xca	; 0xca <__bad_interrupt>
  50:	0c 94 65 00 	jmp	0xca	; 0xca <__bad_interrupt>
  54:	0c 94 65 00 	jmp	0xca	; 0xca <__bad_interrupt>
  58:	0c 94 65 00 	jmp	0xca	; 0xca <__bad_interrupt>
  5c:	0c 94 65 00 	jmp	0xca	; 0xca <__bad_interrupt>
  60:	0c 94 65 00 	jmp	0xca	; 0xca <__bad_interrupt>
  64:	0c 94 65 00 	jmp	0xca	; 0xca <__bad_interrupt>
  68:	0c 94 65 00 	jmp	0xca	; 0xca <__bad_interrupt>
  6c:	0c 94 65 00 	jmp	0xca	; 0xca <__bad_interrupt>
  70:	0c 94 65 00 	jmp	0xca	; 0xca <__bad_interrupt>
  74:	0c 94 65 00 	jmp	0xca	; 0xca <__bad_interrupt>
  78:	0c 94 65 00 	jmp	0xca	; 0xca <__bad_interrupt>
  7c:	0c 94 65 00 	jmp	0xca	; 0xca <__bad_interrupt>
  80:	0c 94 65 00 	jmp	0xca	; 0xca <__bad_interrupt>
  84:	0c 94 65 00 	jmp	0xca	; 0xca <__bad_interrupt>
  88:	0c 94 65 00 	jmp	0xca	; 0xca <__bad_interrupt>

0000008c <__ctors_end>:
  8c:	11 24       	eor	r1, r1
  8e:	1f be       	out	0x3f, r1	; 63
  90:	cf ef       	ldi	r28, 0xFF	; 255
  92:	d0 e1       	ldi	r29, 0x10	; 16
  94:	de bf       	out	0x3e, r29	; 62
  96:	cd bf       	out	0x3d, r28	; 61

00000098 <__do_copy_data>:
  98:	11 e0       	ldi	r17, 0x01	; 1
  9a:	a0 e0       	ldi	r26, 0x00	; 0
  9c:	b1 e0       	ldi	r27, 0x01	; 1
  9e:	e2 e0       	ldi	r30, 0x02	; 2
  a0:	f3 e0       	ldi	r31, 0x03	; 3
  a2:	00 e0       	ldi	r16, 0x00	; 0
  a4:	0b bf       	out	0x3b, r16	; 59
  a6:	02 c0       	rjmp	.+4      	; 0xac <__do_copy_data+0x14>
  a8:	07 90       	elpm	r0, Z+
  aa:	0d 92       	st	X+, r0
  ac:	ae 32       	cpi	r26, 0x2E	; 46
  ae:	b1 07       	cpc	r27, r17
  b0:	d9 f7       	brne	.-10     	; 0xa8 <__do_copy_data+0x10>

000000b2 <__do_clear_bss>:
  b2:	21 e0       	ldi	r18, 0x01	; 1
  b4:	ae e2       	ldi	r26, 0x2E	; 46
  b6:	b1 e0       	ldi	r27, 0x01	; 1
  b8:	01 c0       	rjmp	.+2      	; 0xbc <.do_clear_bss_start>

000000ba <.do_clear_bss_loop>:
  ba:	1d 92       	st	X+, r1

000000bc <.do_clear_bss_start>:
  bc:	a0 33       	cpi	r26, 0x30	; 48
  be:	b2 07       	cpc	r27, r18
  c0:	e1 f7       	brne	.-8      	; 0xba <.do_clear_bss_loop>
  c2:	0e 94 ad 00 	call	0x15a	; 0x15a <main>
  c6:	0c 94 7f 01 	jmp	0x2fe	; 0x2fe <_exit>

000000ca <__bad_interrupt>:
  ca:	0c 94 00 00 	jmp	0	; 0x0 <__vectors>

000000ce <nRF_writeReg>:
  ce:	ef 92       	push	r14
  d0:	ff 92       	push	r15
  d2:	0f 93       	push	r16
  d4:	1f 93       	push	r17
  d6:	cf 93       	push	r28
  d8:	7b 01       	movw	r14, r22
  da:	8a 01       	movw	r16, r20
  dc:	c6 98       	cbi	0x18, 6	; 24
  de:	80 62       	ori	r24, 0x20	; 32
  e0:	0e 94 72 01 	call	0x2e4	; 0x2e4 <SPI_MasterTransmit>
  e4:	c0 e0       	ldi	r28, 0x00	; 0
  e6:	8c 2f       	mov	r24, r28
  e8:	90 e0       	ldi	r25, 0x00	; 0
  ea:	80 17       	cp	r24, r16
  ec:	91 07       	cpc	r25, r17
  ee:	40 f4       	brcc	.+16     	; 0x100 <nRF_writeReg+0x32>
  f0:	f7 01       	movw	r30, r14
  f2:	e8 0f       	add	r30, r24
  f4:	f9 1f       	adc	r31, r25
  f6:	80 81       	ld	r24, Z
  f8:	0e 94 72 01 	call	0x2e4	; 0x2e4 <SPI_MasterTransmit>
  fc:	cf 5f       	subi	r28, 0xFF	; 255
  fe:	f3 cf       	rjmp	.-26     	; 0xe6 <nRF_writeReg+0x18>
 100:	c6 9a       	sbi	0x18, 6	; 24
 102:	cf 91       	pop	r28
 104:	1f 91       	pop	r17
 106:	0f 91       	pop	r16
 108:	ff 90       	pop	r15
 10a:	ef 90       	pop	r14
 10c:	08 95       	ret

0000010e <nRF_readReg>:
 10e:	cf 92       	push	r12
 110:	df 92       	push	r13
 112:	ef 92       	push	r14
 114:	ff 92       	push	r15
 116:	1f 93       	push	r17
 118:	cf 93       	push	r28
 11a:	df 93       	push	r29
 11c:	6b 01       	movw	r12, r22
 11e:	7a 01       	movw	r14, r20
 120:	c6 98       	cbi	0x18, 6	; 24
 122:	0e 94 72 01 	call	0x2e4	; 0x2e4 <SPI_MasterTransmit>
 126:	0e 94 76 01 	call	0x2ec	; 0x2ec <SPI_SlaveInit>
 12a:	10 e0       	ldi	r17, 0x00	; 0
 12c:	81 2f       	mov	r24, r17
 12e:	90 e0       	ldi	r25, 0x00	; 0
 130:	8e 15       	cp	r24, r14
 132:	9f 05       	cpc	r25, r15
 134:	40 f4       	brcc	.+16     	; 0x146 <nRF_readReg+0x38>
 136:	e6 01       	movw	r28, r12
 138:	c8 0f       	add	r28, r24
 13a:	d9 1f       	adc	r29, r25
 13c:	0e 94 7b 01 	call	0x2f6	; 0x2f6 <SPI_SlaveReceive>
 140:	88 83       	st	Y, r24
 142:	1f 5f       	subi	r17, 0xFF	; 255
 144:	f3 cf       	rjmp	.-26     	; 0x12c <nRF_readReg+0x1e>
 146:	c6 9a       	sbi	0x18, 6	; 24
 148:	df 91       	pop	r29
 14a:	cf 91       	pop	r28
 14c:	1f 91       	pop	r17
 14e:	ff 90       	pop	r15
 150:	ef 90       	pop	r14
 152:	df 90       	pop	r13
 154:	cf 90       	pop	r12
 156:	0c 94 6d 01 	jmp	0x2da	; 0x2da <SPI_MasterInit>

0000015a <main>:
 15a:	0e 94 6d 01 	call	0x2da	; 0x2da <SPI_MasterInit>
 15e:	88 e5       	ldi	r24, 0x58	; 88
 160:	80 93 2f 01 	sts	0x012F, r24	; 0x80012f <nRF_data>
 164:	41 e0       	ldi	r20, 0x01	; 1
 166:	50 e0       	ldi	r21, 0x00	; 0
 168:	6f e2       	ldi	r22, 0x2F	; 47
 16a:	71 e0       	ldi	r23, 0x01	; 1
 16c:	80 e0       	ldi	r24, 0x00	; 0
 16e:	0e 94 67 00 	call	0xce	; 0xce <nRF_writeReg>
 172:	10 92 2f 01 	sts	0x012F, r1	; 0x80012f <nRF_data>
 176:	41 e0       	ldi	r20, 0x01	; 1
 178:	50 e0       	ldi	r21, 0x00	; 0
 17a:	6f e2       	ldi	r22, 0x2F	; 47
 17c:	71 e0       	ldi	r23, 0x01	; 1
 17e:	81 e0       	ldi	r24, 0x01	; 1
 180:	0e 94 67 00 	call	0xce	; 0xce <nRF_writeReg>
 184:	80 e1       	ldi	r24, 0x10	; 16
 186:	80 93 2f 01 	sts	0x012F, r24	; 0x80012f <nRF_data>
 18a:	41 e0       	ldi	r20, 0x01	; 1
 18c:	50 e0       	ldi	r21, 0x00	; 0
 18e:	6f e2       	ldi	r22, 0x2F	; 47
 190:	71 e0       	ldi	r23, 0x01	; 1
 192:	85 e0       	ldi	r24, 0x05	; 5
 194:	0e 94 67 00 	call	0xce	; 0xce <nRF_writeReg>
 198:	82 e2       	ldi	r24, 0x22	; 34
 19a:	80 93 2f 01 	sts	0x012F, r24	; 0x80012f <nRF_data>
 19e:	41 e0       	ldi	r20, 0x01	; 1
 1a0:	50 e0       	ldi	r21, 0x00	; 0
 1a2:	6f e2       	ldi	r22, 0x2F	; 47
 1a4:	71 e0       	ldi	r23, 0x01	; 1
 1a6:	86 e0       	ldi	r24, 0x06	; 6
 1a8:	0e 94 67 00 	call	0xce	; 0xce <nRF_writeReg>
 1ac:	45 e0       	ldi	r20, 0x05	; 5
 1ae:	50 e0       	ldi	r21, 0x00	; 0
 1b0:	69 e2       	ldi	r22, 0x29	; 41
 1b2:	71 e0       	ldi	r23, 0x01	; 1
 1b4:	80 e1       	ldi	r24, 0x10	; 16
 1b6:	0e 94 67 00 	call	0xce	; 0xce <nRF_writeReg>
 1ba:	0e 94 76 01 	call	0x2ec	; 0x2ec <SPI_SlaveInit>
 1be:	c6 98       	cbi	0x18, 6	; 24
 1c0:	0e 94 7b 01 	call	0x2f6	; 0x2f6 <SPI_SlaveReceive>
 1c4:	80 93 2f 01 	sts	0x012F, r24	; 0x80012f <nRF_data>
 1c8:	c6 9a       	sbi	0x18, 6	; 24
 1ca:	0e 94 6d 01 	call	0x2da	; 0x2da <SPI_MasterInit>
 1ce:	41 e0       	ldi	r20, 0x01	; 1
 1d0:	50 e0       	ldi	r21, 0x00	; 0
 1d2:	6f e2       	ldi	r22, 0x2F	; 47
 1d4:	71 e0       	ldi	r23, 0x01	; 1
 1d6:	87 e0       	ldi	r24, 0x07	; 7
 1d8:	0e 94 67 00 	call	0xce	; 0xce <nRF_writeReg>
 1dc:	d0 e2       	ldi	r29, 0x20	; 32
 1de:	80 e0       	ldi	r24, 0x00	; 0
 1e0:	91 e0       	ldi	r25, 0x01	; 1
 1e2:	c0 e2       	ldi	r28, 0x20	; 32
 1e4:	c8 0f       	add	r28, r24
 1e6:	41 e0       	ldi	r20, 0x01	; 1
 1e8:	50 e0       	ldi	r21, 0x00	; 0
 1ea:	60 e0       	ldi	r22, 0x00	; 0
 1ec:	70 e0       	ldi	r23, 0x00	; 0
 1ee:	81 e7       	ldi	r24, 0x71	; 113
 1f0:	0e 94 67 00 	call	0xce	; 0xce <nRF_writeReg>
 1f4:	d0 93 2f 01 	sts	0x012F, r29	; 0x80012f <nRF_data>
 1f8:	41 e0       	ldi	r20, 0x01	; 1
 1fa:	50 e0       	ldi	r21, 0x00	; 0
 1fc:	6f e2       	ldi	r22, 0x2F	; 47
 1fe:	71 e0       	ldi	r23, 0x01	; 1
 200:	87 e0       	ldi	r24, 0x07	; 7
 202:	0e 94 67 00 	call	0xce	; 0xce <nRF_writeReg>
 206:	c6 98       	cbi	0x18, 6	; 24
 208:	80 ea       	ldi	r24, 0xA0	; 160
 20a:	0e 94 72 01 	call	0x2e4	; 0x2e4 <SPI_MasterTransmit>
 20e:	00 e0       	ldi	r16, 0x00	; 0
 210:	11 e0       	ldi	r17, 0x01	; 1
 212:	f8 01       	movw	r30, r16
 214:	81 91       	ld	r24, Z+
 216:	8f 01       	movw	r16, r30
 218:	0e 94 72 01 	call	0x2e4	; 0x2e4 <SPI_MasterTransmit>
 21c:	c0 13       	cpse	r28, r16
 21e:	f9 cf       	rjmp	.-14     	; 0x212 <main+0xb8>
 220:	c6 9a       	sbi	0x18, 6	; 24
 222:	41 e0       	ldi	r20, 0x01	; 1
 224:	50 e0       	ldi	r21, 0x00	; 0
 226:	6f e2       	ldi	r22, 0x2F	; 47
 228:	71 e0       	ldi	r23, 0x01	; 1
 22a:	80 e0       	ldi	r24, 0x00	; 0
 22c:	0e 94 87 00 	call	0x10e	; 0x10e <nRF_readReg>
 230:	80 91 2f 01 	lds	r24, 0x012F	; 0x80012f <nRF_data>
 234:	82 60       	ori	r24, 0x02	; 2
 236:	80 93 2f 01 	sts	0x012F, r24	; 0x80012f <nRF_data>
 23a:	41 e0       	ldi	r20, 0x01	; 1
 23c:	50 e0       	ldi	r21, 0x00	; 0
 23e:	6f e2       	ldi	r22, 0x2F	; 47
 240:	71 e0       	ldi	r23, 0x01	; 1
 242:	80 e0       	ldi	r24, 0x00	; 0
 244:	0e 94 67 00 	call	0xce	; 0xce <nRF_writeReg>
 248:	8f e9       	ldi	r24, 0x9F	; 159
 24a:	9f e0       	ldi	r25, 0x0F	; 15
 24c:	01 97       	sbiw	r24, 0x01	; 1
 24e:	f1 f7       	brne	.-4      	; 0x24c <main+0xf2>
 250:	00 c0       	rjmp	.+0      	; 0x252 <main+0xf8>
 252:	00 00       	nop
 254:	c4 98       	cbi	0x18, 4	; 24
 256:	98 e2       	ldi	r25, 0x28	; 40
 258:	9a 95       	dec	r25
 25a:	f1 f7       	brne	.-4      	; 0x258 <main+0xfe>
 25c:	c4 98       	cbi	0x18, 4	; 24
 25e:	e7 ec       	ldi	r30, 0xC7	; 199
 260:	f0 e0       	ldi	r31, 0x00	; 0
 262:	31 97       	sbiw	r30, 0x01	; 1
 264:	f1 f7       	brne	.-4      	; 0x262 <main+0x108>
 266:	00 c0       	rjmp	.+0      	; 0x268 <main+0x10e>
 268:	00 00       	nop
 26a:	ff ef       	ldi	r31, 0xFF	; 255
 26c:	2e e9       	ldi	r18, 0x9E	; 158
 26e:	84 e2       	ldi	r24, 0x24	; 36
 270:	f1 50       	subi	r31, 0x01	; 1
 272:	20 40       	sbci	r18, 0x00	; 0
 274:	80 40       	sbci	r24, 0x00	; 0
 276:	e1 f7       	brne	.-8      	; 0x270 <main+0x116>
 278:	00 c0       	rjmp	.+0      	; 0x27a <main+0x120>
 27a:	00 00       	nop
 27c:	0e 94 76 01 	call	0x2ec	; 0x2ec <SPI_SlaveInit>
 280:	c6 98       	cbi	0x18, 6	; 24
 282:	0e 94 7b 01 	call	0x2f6	; 0x2f6 <SPI_SlaveReceive>
 286:	80 93 2f 01 	sts	0x012F, r24	; 0x80012f <nRF_data>
 28a:	c6 9a       	sbi	0x18, 6	; 24
 28c:	e7 ec       	ldi	r30, 0xC7	; 199
 28e:	f0 e0       	ldi	r31, 0x00	; 0
 290:	31 97       	sbiw	r30, 0x01	; 1
 292:	f1 f7       	brne	.-4      	; 0x290 <main+0x136>
 294:	00 c0       	rjmp	.+0      	; 0x296 <main+0x13c>
 296:	00 00       	nop
 298:	80 91 2f 01 	lds	r24, 0x012F	; 0x80012f <nRF_data>
 29c:	85 ff       	sbrs	r24, 5
 29e:	f0 cf       	rjmp	.-32     	; 0x280 <main+0x126>
 2a0:	0e 94 6d 01 	call	0x2da	; 0x2da <SPI_MasterInit>
 2a4:	0e 94 76 01 	call	0x2ec	; 0x2ec <SPI_SlaveInit>
 2a8:	c6 98       	cbi	0x18, 6	; 24
 2aa:	0e 94 7b 01 	call	0x2f6	; 0x2f6 <SPI_SlaveReceive>
 2ae:	80 93 2f 01 	sts	0x012F, r24	; 0x80012f <nRF_data>
 2b2:	c6 9a       	sbi	0x18, 6	; 24
 2b4:	0e 94 6d 01 	call	0x2da	; 0x2da <SPI_MasterInit>
 2b8:	41 e0       	ldi	r20, 0x01	; 1
 2ba:	50 e0       	ldi	r21, 0x00	; 0
 2bc:	6f e2       	ldi	r22, 0x2F	; 47
 2be:	71 e0       	ldi	r23, 0x01	; 1
 2c0:	87 e0       	ldi	r24, 0x07	; 7
 2c2:	0e 94 67 00 	call	0xce	; 0xce <nRF_writeReg>
 2c6:	ff ef       	ldi	r31, 0xFF	; 255
 2c8:	29 e6       	ldi	r18, 0x69	; 105
 2ca:	88 e1       	ldi	r24, 0x18	; 24
 2cc:	f1 50       	subi	r31, 0x01	; 1
 2ce:	20 40       	sbci	r18, 0x00	; 0
 2d0:	80 40       	sbci	r24, 0x00	; 0
 2d2:	e1 f7       	brne	.-8      	; 0x2cc <main+0x172>
 2d4:	00 c0       	rjmp	.+0      	; 0x2d6 <main+0x17c>
 2d6:	00 00       	nop
 2d8:	86 cf       	rjmp	.-244    	; 0x1e6 <main+0x8c>

000002da <SPI_MasterInit>:
 2da:	86 e0       	ldi	r24, 0x06	; 6
 2dc:	87 bb       	out	0x17, r24	; 23
 2de:	81 e5       	ldi	r24, 0x51	; 81
 2e0:	8d b9       	out	0x0d, r24	; 13
 2e2:	08 95       	ret

000002e4 <SPI_MasterTransmit>:
 2e4:	8f b9       	out	0x0f, r24	; 15
 2e6:	77 9b       	sbis	0x0e, 7	; 14
 2e8:	fe cf       	rjmp	.-4      	; 0x2e6 <SPI_MasterTransmit+0x2>
 2ea:	08 95       	ret

000002ec <SPI_SlaveInit>:
 2ec:	88 e0       	ldi	r24, 0x08	; 8
 2ee:	87 bb       	out	0x17, r24	; 23
 2f0:	80 e4       	ldi	r24, 0x40	; 64
 2f2:	8d b9       	out	0x0d, r24	; 13
 2f4:	08 95       	ret

000002f6 <SPI_SlaveReceive>:
 2f6:	77 9b       	sbis	0x0e, 7	; 14
 2f8:	fe cf       	rjmp	.-4      	; 0x2f6 <SPI_SlaveReceive>
 2fa:	8f b1       	in	r24, 0x0f	; 15
 2fc:	08 95       	ret

000002fe <_exit>:
 2fe:	f8 94       	cli

00000300 <__stop_program>:
 300:	ff cf       	rjmp	.-2      	; 0x300 <__stop_program>
